; Function Attrs: mustprogress uwtable
define dso_local void @_ZN4i18n12phonenumbers26PhoneNumberOfflineGeocoderC2EPKiiPFPKNS0_16CountryLanguagesEiEPPKciPFPKNS0_18PrefixDescriptionsEiE(ptr noundef nonnull align 8 dereferenceable(104) %0, ptr noundef %1, i32 noundef %2, ptr noundef %3, ptr noundef %4, i32 noundef %5, ptr noundef %6) unnamed_addr #3 align 2 personality ptr @__gxx_personality_v0 {
  store ptr getelementptr inbounds ({ [4 x ptr] }, ptr @_ZTVN4i18n12phonenumbers26PhoneNumberOfflineGeocoderE, i64 0, i32 0, i64 2), ptr %0, align 8
  %8 = getelementptr inbounds i8, ptr %0, i64 16
  store ptr null, ptr %8, align 8
  %9 = getelementptr inbounds i8, ptr %0, i64 48
  store i64 0, ptr %9, align 8
  %10 = getelementptr inbounds i8, ptr %0, i64 56
  %11 = getelementptr inbounds i8, ptr %0, i64 64
  store i32 0, ptr %11, align 8
  %12 = getelementptr inbounds i8, ptr %0, i64 72
  store ptr null, ptr %12, align 8
  %13 = getelementptr inbounds i8, ptr %0, i64 80
  store ptr %11, ptr %13, align 8
  %14 = getelementptr inbounds i8, ptr %0, i64 88
  store ptr %11, ptr %14, align 8
  %15 = getelementptr inbounds i8, ptr %0, i64 96
  store i64 0, ptr %15, align 8
  %16 = invoke noundef ptr @_ZN4i18n12phonenumbers15PhoneNumberUtil11GetInstanceEv()
          to label %.noexc unwind label %29

.noexc:                                           ; preds = %7
  %17 = getelementptr inbounds i8, ptr %0, i64 8
  store ptr %16, ptr %17, align 8
  %18 = invoke noalias noundef nonnull dereferenceable(24) ptr @_Znwm(i64 noundef 24) #12
          to label %.noexc8 unwind label %29

.noexc8:                                          ; preds = %.noexc
  invoke void @_ZN4i18n12phonenumbers19MappingFileProviderC1EPKiiPFPKNS0_16CountryLanguagesEiE(ptr noundef nonnull align 8 dereferenceable(24) %18, ptr noundef %1, i32 noundef %2, ptr noundef %3)
          to label %19 unwind label %23

19:                                               ; preds = %.noexc8
  %20 = load ptr, ptr %8, align 8
  store ptr %18, ptr %8, align 8
  %21 = icmp eq ptr %20, null
  br i1 %21, label %25, label %22

22:                                               ; preds = %19
  tail call void @_ZdlPv(ptr noundef nonnull %20) #13
  br label %25

23:                                               ; preds = %.noexc8
  %24 = landingpad { ptr, i32 }
          cleanup
  tail call void @_ZdlPv(ptr noundef nonnull %18) #13
  br label %.body

25:                                               ; preds = %22, %19
  %26 = getelementptr inbounds i8, ptr %0, i64 24
  store ptr %4, ptr %26, align 8
  %27 = getelementptr inbounds i8, ptr %0, i64 32
  store i32 %5, ptr %27, align 8
  %28 = getelementptr inbounds i8, ptr %0, i64 40
  store ptr %6, ptr %28, align 8
  ret void

29:                                               ; preds = %.noexc, %7
  %30 = landingpad { ptr, i32 }
          cleanup
  br label %.body

.body:                                            ; preds = %23, %29
  %eh.lpad-body = phi { ptr, i32 } [ %30, %29 ], [ %24, %23 ]
  tail call void @_ZNSt3mapINSt7__cxx1112basic_stringIcSt11char_traitsIcESaIcEEEPKN4i18n12phonenumbers11AreaCodeMapESt4lessIS5_ESaISt4pairIKS5_SA_EEED2Ev(ptr noundef nonnull align 8 dereferenceable(48) %10) #14
  tail call void @_ZN4absl7debian25MutexD1Ev(ptr noundef nonnull align 8 dereferenceable(8) %9) #14
  %31 = load ptr, ptr %8, align 8
  %32 = icmp eq ptr %31, null
  br i1 %32, label %_ZN5boost10scoped_ptrIKN4i18n12phonenumbers19MappingFileProviderEED2Ev.exit, label %33

33:                                               ; preds = %.body
  tail call void @_ZdlPv(ptr noundef nonnull %31) #13
  br label %_ZN5boost10scoped_ptrIKN4i18n12phonenumbers19MappingFileProviderEED2Ev.exit

_ZN5boost10scoped_ptrIKN4i18n12phonenumbers19MappingFileProviderEED2Ev.exit: ; preds = %.body, %33
  resume { ptr, i32 } %eh.lpad-body
}